	.file	"productos.c"
	.text
.Ltext0:
	.file 0 "/home/francis-loayza/Documentos/GitHub/Tarea-1/Tema4" "../Tema1/productos.c"
	.section	.rodata
.LC0:
	.string	"r"
.LC1:
	.string	","
	.text
	.globl	cargar_productos
	.type	cargar_productos, @function
cargar_productos:
.LFB6:
	.file 1 "../Tema1/productos.c"
	.loc 1 8 54
	.cfi_startproc
	endbr64
	pushq	%rbp
	.cfi_def_cfa_offset 16
	.cfi_offset 6, -16
	movq	%rsp, %rbp
	.cfi_def_cfa_register 6
	subq	$576, %rsp
	movq	%rdi, -568(%rbp)
	movq	%rsi, -576(%rbp)
	.loc 1 8 54
	movq	%fs:40, %rax
	movq	%rax, -8(%rbp)
	xorl	%eax, %eax
	.loc 1 9 8
	movq	-576(%rbp), %rax
	movl	$0, (%rax)
	.loc 1 10 15
	movq	-568(%rbp), %rax
	leaq	.LC0(%rip), %rdx
	movq	%rdx, %rsi
	movq	%rax, %rdi
	call	fopen@PLT
	movq	%rax, -552(%rbp)
	.loc 1 11 8
	cmpq	$0, -552(%rbp)
	jne	.L2
	.loc 1 11 20 discriminator 1
	movl	$0, %eax
	.loc 1 11 20 is_stmt 0
	jmp	.L18
.L2:
	.loc 1 12 15 is_stmt 1
	movq	$0, -560(%rbp)
	.loc 1 14 11
	jmp	.L4
.L17:
.LBB2:
	.loc 1 15 19
	leaq	-528(%rbp), %rax
	movl	$10, %esi
	movq	%rax, %rdi
	call	strchr@PLT
	movq	%rax, -544(%rbp)
	.loc 1 15 43 discriminator 1
	cmpq	$0, -544(%rbp)
	je	.L5
	.loc 1 15 50 discriminator 1
	movq	-544(%rbp), %rax
	movb	$0, (%rax)
.L5:
	.loc 1 16 20
	leaq	-528(%rbp), %rax
	.loc 1 16 27
	movzbl	(%rax), %eax
	.loc 1 16 12
	testb	%al, %al
	je	.L20
	.loc 1 17 21
	leaq	-528(%rbp), %rax
	leaq	.LC1(%rip), %rdx
	movq	%rdx, %rsi
	movq	%rax, %rdi
	call	strtok@PLT
	movq	%rax, -536(%rbp)
	.loc 1 18 12
	cmpq	$0, -536(%rbp)
	je	.L21
	.loc 1 19 48
	movq	-576(%rbp), %rax
	movl	(%rax), %eax
	.loc 1 19 51
	addl	$1, %eax
	cltq
	.loc 1 19 15
	imulq	$184, %rax, %rdx
	movq	-560(%rbp), %rax
	movq	%rdx, %rsi
	movq	%rax, %rdi
	call	realloc@PLT
	movq	%rax, -560(%rbp)
	.loc 1 20 21
	movq	-576(%rbp), %rax
	movl	(%rax), %eax
	cltq
	.loc 1 20 20
	imulq	$184, %rax, %rdx
	movq	-560(%rbp), %rax
	addq	%rdx, %rax
	.loc 1 20 24
	movq	%rax, %rcx
	.loc 1 20 9
	movq	-536(%rbp), %rax
	movl	$31, %edx
	movq	%rax, %rsi
	movq	%rcx, %rdi
	call	strncpy@PLT
	.loc 1 20 69 discriminator 1
	movq	-576(%rbp), %rax
	movl	(%rax), %eax
	cltq
	.loc 1 20 68 discriminator 1
	imulq	$184, %rax, %rdx
	movq	-560(%rbp), %rax
	addq	%rdx, %rax
	.loc 1 20 106 discriminator 1
	movb	$0, 31(%rax)
	.loc 1 21 15
	leaq	.LC1(%rip), %rax
	movq	%rax, %rsi
	movl	$0, %edi
	call	strtok@PLT
	movq	%rax, -536(%rbp)
	.loc 1 22 12
	cmpq	$0, -536(%rbp)
	je	.L9
	.loc 1 22 30 discriminator 1
	movq	-576(%rbp), %rax
	movl	(%rax), %eax
	cltq
	.loc 1 22 29 discriminator 1
	imulq	$184, %rax, %rdx
	movq	-560(%rbp), %rax
	addq	%rdx, %rax
	.loc 1 22 33 discriminator 1
	leaq	32(%rax), %rcx
	.loc 1 22 18 discriminator 1
	movq	-536(%rbp), %rax
	movl	$127, %edx
	movq	%rax, %rsi
	movq	%rcx, %rdi
	call	strncpy@PLT
	jmp	.L10
.L9:
	.loc 1 22 83 discriminator 2
	movq	-576(%rbp), %rax
	movl	(%rax), %eax
	cltq
	.loc 1 22 82 discriminator 2
	imulq	$184, %rax, %rdx
	movq	-560(%rbp), %rax
	addq	%rdx, %rax
	.loc 1 22 97 discriminator 2
	movb	$0, 32(%rax)
.L10:
	.loc 1 23 15
	leaq	.LC1(%rip), %rax
	movq	%rax, %rsi
	movl	$0, %edi
	call	strtok@PLT
	movq	%rax, -536(%rbp)
	.loc 1 24 44
	cmpq	$0, -536(%rbp)
	je	.L11
	.loc 1 24 34 discriminator 1
	movq	-536(%rbp), %rax
	movq	%rax, %rdi
	call	atoi@PLT
	jmp	.L12
.L11:
	.loc 1 24 44 discriminator 2
	movl	$0, %eax
.L12:
	.loc 1 24 13 discriminator 4
	movq	-576(%rbp), %rdx
	movl	(%rdx), %edx
	movslq	%edx, %rdx
	.loc 1 24 12 discriminator 4
	imulq	$184, %rdx, %rcx
	movq	-560(%rbp), %rdx
	addq	%rcx, %rdx
	.loc 1 24 26 discriminator 4
	movl	%eax, 160(%rdx)
	.loc 1 25 15
	leaq	.LC1(%rip), %rax
	movq	%rax, %rsi
	movl	$0, %edi
	call	strtok@PLT
	movq	%rax, -536(%rbp)
	.loc 1 26 41
	cmpq	$0, -536(%rbp)
	je	.L13
	.loc 1 26 31 discriminator 1
	movq	-536(%rbp), %rax
	movq	%rax, %rdi
	call	atof@PLT
	movq	%xmm0, %rax
	jmp	.L14
.L13:
	.loc 1 26 41 discriminator 2
	movq	.LC2(%rip), %rax
.L14:
	.loc 1 26 13 discriminator 4
	movq	-576(%rbp), %rdx
	movl	(%rdx), %edx
	movslq	%edx, %rdx
	.loc 1 26 12 discriminator 4
	imulq	$184, %rdx, %rcx
	movq	-560(%rbp), %rdx
	addq	%rcx, %rdx
	.loc 1 26 23 discriminator 4
	movq	%rax, 168(%rdx)
	.loc 1 27 15
	leaq	.LC1(%rip), %rax
	movq	%rax, %rsi
	movl	$0, %edi
	call	strtok@PLT
	movq	%rax, -536(%rbp)
	.loc 1 28 42
	cmpq	$0, -536(%rbp)
	je	.L15
	.loc 1 28 32 discriminator 1
	movq	-536(%rbp), %rax
	movq	%rax, %rdi
	call	atof@PLT
	movq	%xmm0, %rax
	jmp	.L16
.L15:
	.loc 1 28 42 discriminator 2
	movq	.LC2(%rip), %rax
.L16:
	.loc 1 28 13 discriminator 4
	movq	-576(%rbp), %rdx
	movl	(%rdx), %edx
	movslq	%edx, %rdx
	.loc 1 28 12 discriminator 4
	imulq	$184, %rdx, %rcx
	movq	-560(%rbp), %rdx
	addq	%rcx, %rdx
	.loc 1 28 24 discriminator 4
	movq	%rax, 176(%rdx)
	.loc 1 29 10
	movq	-576(%rbp), %rax
	movl	(%rax), %eax
	.loc 1 29 13
	leal	1(%rax), %edx
	movq	-576(%rbp), %rax
	movl	%edx, (%rax)
	jmp	.L4
.L20:
	.loc 1 16 33
	nop
	jmp	.L4
.L21:
	.loc 1 18 19
	nop
.L4:
.LBE2:
	.loc 1 14 12
	movq	-552(%rbp), %rdx
	leaq	-528(%rbp), %rax
	movl	$512, %esi
	movq	%rax, %rdi
	call	fgets@PLT
	.loc 1 14 12 is_stmt 0 discriminator 1
	testq	%rax, %rax
	jne	.L17
	.loc 1 31 5 is_stmt 1
	movq	-552(%rbp), %rax
	movq	%rax, %rdi
	call	fclose@PLT
	.loc 1 32 12
	movq	-560(%rbp), %rax
.L18:
	.loc 1 33 1
	movq	-8(%rbp), %rdx
	subq	%fs:40, %rdx
	je	.L19
	call	__stack_chk_fail@PLT
.L19:
	leave
	.cfi_def_cfa 7, 8
	ret
	.cfi_endproc
.LFE6:
	.size	cargar_productos, .-cargar_productos
	.section	.rodata
.LC3:
	.string	"w"
.LC4:
	.string	"guardar_productos: fopen"
.LC5:
	.string	"%s,%s,%d,%.2f,%.2f\n"
	.text
	.globl	guardar_productos
	.type	guardar_productos, @function
guardar_productos:
.LFB7:
	.loc 1 35 64
	.cfi_startproc
	endbr64
	pushq	%rbp
	.cfi_def_cfa_offset 16
	.cfi_offset 6, -16
	movq	%rsp, %rbp
	.cfi_def_cfa_register 6
	subq	$48, %rsp
	movq	%rdi, -24(%rbp)
	movq	%rsi, -32(%rbp)
	movl	%edx, -36(%rbp)
	.loc 1 36 15
	movq	-24(%rbp), %rax
	leaq	.LC3(%rip), %rdx
	movq	%rdx, %rsi
	movq	%rax, %rdi
	call	fopen@PLT
	movq	%rax, -8(%rbp)
	.loc 1 37 8
	cmpq	$0, -8(%rbp)
	jne	.L23
	.loc 1 38 9
	leaq	.LC4(%rip), %rax
	movq	%rax, %rdi
	call	perror@PLT
	.loc 1 39 9
	jmp	.L22
.L23:
.LBB3:
	.loc 1 41 14
	movl	$0, -12(%rbp)
	.loc 1 41 5
	jmp	.L25
.L26:
	.loc 1 43 81
	movl	-12(%rbp), %eax
	cltq
	imulq	$184, %rax, %rdx
	movq	-32(%rbp), %rax
	addq	%rdx, %rax
	.loc 1 42 9
	movsd	176(%rax), %xmm0
	.loc 1 43 67
	movl	-12(%rbp), %eax
	cltq
	imulq	$184, %rax, %rdx
	movq	-32(%rbp), %rax
	addq	%rdx, %rax
	.loc 1 42 9
	movq	168(%rax), %rdx
	.loc 1 43 50
	movl	-12(%rbp), %eax
	cltq
	imulq	$184, %rax, %rcx
	movq	-32(%rbp), %rax
	addq	%rcx, %rax
	.loc 1 42 9
	movl	160(%rax), %edi
	.loc 1 43 35
	movl	-12(%rbp), %eax
	cltq
	imulq	$184, %rax, %rcx
	movq	-32(%rbp), %rax
	addq	%rcx, %rax
	.loc 1 43 38
	leaq	32(%rax), %rcx
	.loc 1 43 20
	movl	-12(%rbp), %eax
	cltq
	imulq	$184, %rax, %rsi
	movq	-32(%rbp), %rax
	addq	%rsi, %rax
	.loc 1 43 23
	movq	%rax, %rsi
	.loc 1 42 9
	movq	-8(%rbp), %rax
	movapd	%xmm0, %xmm1
	movq	%rdx, %xmm0
	movl	%edi, %r8d
	movq	%rsi, %rdx
	leaq	.LC5(%rip), %rsi
	movq	%rax, %rdi
	movl	$2, %eax
	call	fprintf@PLT
	.loc 1 41 23 discriminator 3
	addl	$1, -12(%rbp)
.L25:
	.loc 1 41 19 discriminator 1
	movl	-12(%rbp), %eax
	cmpl	-36(%rbp), %eax
	jl	.L26
.LBE3:
	.loc 1 45 5
	movq	-8(%rbp), %rax
	movq	%rax, %rdi
	call	fclose@PLT
.L22:
	.loc 1 46 1
	leave
	.cfi_def_cfa 7, 8
	ret
	.cfi_endproc
.LFE7:
	.size	guardar_productos, .-guardar_productos
	.globl	liberar_productos
	.type	liberar_productos, @function
liberar_productos:
.LFB8:
	.loc 1 48 37
	.cfi_startproc
	endbr64
	pushq	%rbp
	.cfi_def_cfa_offset 16
	.cfi_offset 6, -16
	movq	%rsp, %rbp
	.cfi_def_cfa_register 6
	subq	$16, %rsp
	movq	%rdi, -8(%rbp)
	.loc 1 49 8
	cmpq	$0, -8(%rbp)
	je	.L29
	.loc 1 49 12 discriminator 1
	movq	-8(%rbp), %rax
	movq	%rax, %rdi
	call	free@PLT
.L29:
	.loc 1 50 1
	nop
	leave
	.cfi_def_cfa 7, 8
	ret
	.cfi_endproc
.LFE8:
	.size	liberar_productos, .-liberar_productos
	.globl	buscar_producto
	.type	buscar_producto, @function
buscar_producto:
.LFB9:
	.loc 1 52 63
	.cfi_startproc
	endbr64
	pushq	%rbp
	.cfi_def_cfa_offset 16
	.cfi_offset 6, -16
	movq	%rsp, %rbp
	.cfi_def_cfa_register 6
	subq	$48, %rsp
	movq	%rdi, -24(%rbp)
	movl	%esi, -28(%rbp)
	movq	%rdx, -40(%rbp)
.LBB4:
	.loc 1 53 14
	movl	$0, -4(%rbp)
	.loc 1 53 5
	jmp	.L31
.L34:
	.loc 1 53 41 discriminator 5
	movl	-4(%rbp), %eax
	cltq
	imulq	$184, %rax, %rdx
	movq	-24(%rbp), %rax
	addq	%rdx, %rax
	.loc 1 53 44 discriminator 5
	movq	%rax, %rdx
	.loc 1 53 31 discriminator 5
	movq	-40(%rbp), %rax
	movq	%rax, %rsi
	movq	%rdx, %rdi
	call	strcmp@PLT
	.loc 1 53 30 discriminator 5
	testl	%eax, %eax
	jne	.L32
	.loc 1 53 74 discriminator 2
	movl	-4(%rbp), %eax
	.loc 1 53 74 is_stmt 0
	jmp	.L33
.L32:
	.loc 1 53 23 is_stmt 1 discriminator 3
	addl	$1, -4(%rbp)
.L31:
	.loc 1 53 19 discriminator 4
	movl	-4(%rbp), %eax
	cmpl	-28(%rbp), %eax
	jl	.L34
.LBE4:
	.loc 1 54 12
	movl	$-1, %eax
.L33:
	.loc 1 55 1
	leave
	.cfi_def_cfa 7, 8
	ret
	.cfi_endproc
.LFE9:
	.size	buscar_producto, .-buscar_producto
	.globl	actualizar_inventario
	.type	actualizar_inventario, @function
actualizar_inventario:
.LFB10:
	.loc 1 57 90
	.cfi_startproc
	endbr64
	pushq	%rbp
	.cfi_def_cfa_offset 16
	.cfi_offset 6, -16
	movq	%rsp, %rbp
	.cfi_def_cfa_register 6
	subq	$48, %rsp
	movq	%rdi, -24(%rbp)
	movl	%esi, -28(%rbp)
	movq	%rdx, -40(%rbp)
	movl	%ecx, -32(%rbp)
	.loc 1 58 15
	movq	-40(%rbp), %rdx
	movl	-28(%rbp), %ecx
	movq	-24(%rbp), %rax
	movl	%ecx, %esi
	movq	%rax, %rdi
	call	buscar_producto
	movl	%eax, -4(%rbp)
	.loc 1 59 8
	cmpl	$0, -4(%rbp)
	jns	.L36
	.loc 1 59 25 discriminator 1
	movl	$0, %eax
	.loc 1 59 25 is_stmt 0
	jmp	.L37
.L36:
	.loc 1 60 12 is_stmt 1
	movl	-4(%rbp), %eax
	cltq
	imulq	$184, %rax, %rdx
	movq	-24(%rbp), %rax
	addq	%rdx, %rax
	.loc 1 60 17
	movl	160(%rax), %eax
	.loc 1 60 8
	cmpl	%eax, -32(%rbp)
	jle	.L38
	.loc 1 60 53 discriminator 1
	movl	$0, %eax
	.loc 1 60 53 is_stmt 0
	jmp	.L37
.L38:
	.loc 1 61 8 is_stmt 1
	movl	-4(%rbp), %eax
	cltq
	imulq	$184, %rax, %rdx
	movq	-24(%rbp), %rax
	addq	%rdx, %rax
	.loc 1 61 13
	movl	160(%rax), %eax
	.loc 1 61 8
	movl	-4(%rbp), %edx
	movslq	%edx, %rdx
	imulq	$184, %rdx, %rcx
	movq	-24(%rbp), %rdx
	addq	%rcx, %rdx
	.loc 1 61 23
	subl	-32(%rbp), %eax
	movl	%eax, 160(%rdx)
	.loc 1 62 12
	movl	$1, %eax
.L37:
	.loc 1 63 1
	leave
	.cfi_def_cfa 7, 8
	ret
	.cfi_endproc
.LFE10:
	.size	actualizar_inventario, .-actualizar_inventario
	.section	.rodata
	.align 8
.LC2:
	.long	0
	.long	0
	.text
.Letext0:
	.file 2 "/usr/lib/gcc/x86_64-linux-gnu/13/include/stddef.h"
	.file 3 "/usr/include/x86_64-linux-gnu/bits/types.h"
	.file 4 "/usr/include/x86_64-linux-gnu/bits/types/struct_FILE.h"
	.file 5 "/usr/include/x86_64-linux-gnu/bits/types/FILE.h"
	.file 6 "../Tema1/productos.h"
	.file 7 "/usr/include/string.h"
	.file 8 "/usr/include/stdio.h"
	.file 9 "/usr/include/stdlib.h"
	.section	.note.GNU-stack,"",@progbits
	.section	.note.gnu.property,"a"
	.align 8
	.long	1f - 0f
	.long	4f - 1f
	.long	5
0:
	.string	"GNU"
1:
	.align 8
	.long	0xc0000002
	.long	3f - 2f
2:
	.long	0x3
3:
	.align 8
4:
