	.file	"usuarios.c"
	.text
.Ltext0:
	.file 0 "/home/francis-loayza/Documentos/GitHub/Tarea-1/Tema4" "../Tema1/usuarios.c"
	.section	.rodata
.LC0:
	.string	"r"
	.align 8
.LC1:
	.string	"ERROR: No se pudo abrir el archivo de usuarios: %s\n"
.LC2:
	.string	","
	.text
	.globl	cargar_usuarios
	.type	cargar_usuarios, @function
cargar_usuarios:
.LFB6:
	.file 1 "../Tema1/usuarios.c"
	.loc 1 8 52
	.cfi_startproc
	endbr64
	pushq	%rbp
	.cfi_def_cfa_offset 16
	.cfi_offset 6, -16
	movq	%rsp, %rbp
	.cfi_def_cfa_register 6
	subq	$576, %rsp
	movq	%rdi, -568(%rbp)
	movq	%rsi, -576(%rbp)
	.loc 1 8 52
	movq	%fs:40, %rax
	movq	%rax, -8(%rbp)
	xorl	%eax, %eax
	.loc 1 9 8
	movq	-576(%rbp), %rax
	movl	$0, (%rax)
	.loc 1 10 15
	movq	-568(%rbp), %rax
	leaq	.LC0(%rip), %rdx
	movq	%rdx, %rsi
	movq	%rax, %rdi
	call	fopen@PLT
	movq	%rax, -552(%rbp)
	.loc 1 11 8
	cmpq	$0, -552(%rbp)
	jne	.L2
	.loc 1 12 9
	movq	-568(%rbp), %rax
	movq	%rax, %rsi
	leaq	.LC1(%rip), %rax
	movq	%rax, %rdi
	movl	$0, %eax
	call	printf@PLT
	.loc 1 13 16
	movl	$0, %eax
	jmp	.L12
.L2:
	.loc 1 16 14
	movq	$0, -560(%rbp)
	.loc 1 19 11
	jmp	.L4
.L11:
.LBB2:
	.loc 1 20 19
	leaq	-528(%rbp), %rax
	movl	$10, %esi
	movq	%rax, %rdi
	call	strchr@PLT
	movq	%rax, -544(%rbp)
	.loc 1 21 12
	cmpq	$0, -544(%rbp)
	je	.L5
	.loc 1 21 19 discriminator 1
	movq	-544(%rbp), %rax
	movb	$0, (%rax)
.L5:
	.loc 1 23 20
	leaq	-528(%rbp), %rax
	.loc 1 23 27
	movzbl	(%rax), %eax
	.loc 1 23 12
	testb	%al, %al
	je	.L14
	.loc 1 25 47
	movq	-576(%rbp), %rax
	movl	(%rax), %eax
	.loc 1 25 50
	addl	$1, %eax
	cltq
	.loc 1 25 15
	salq	$8, %rax
	movq	%rax, %rdx
	movq	-560(%rbp), %rax
	movq	%rdx, %rsi
	movq	%rax, %rdi
	call	realloc@PLT
	movq	%rax, -560(%rbp)
	.loc 1 27 21
	leaq	-528(%rbp), %rax
	leaq	.LC2(%rip), %rdx
	movq	%rdx, %rsi
	movq	%rax, %rdi
	call	strtok@PLT
	movq	%rax, -536(%rbp)
	.loc 1 28 12
	cmpq	$0, -536(%rbp)
	je	.L15
	.loc 1 29 21
	movq	-576(%rbp), %rax
	movl	(%rax), %eax
	cltq
	.loc 1 29 20
	salq	$8, %rax
	movq	%rax, %rdx
	movq	-560(%rbp), %rax
	addq	%rdx, %rax
	.loc 1 29 24
	movq	%rax, %rcx
	.loc 1 29 9
	movq	-536(%rbp), %rax
	movl	$63, %edx
	movq	%rax, %rsi
	movq	%rcx, %rdi
	call	strncpy@PLT
	.loc 1 30 13
	movq	-576(%rbp), %rax
	movl	(%rax), %eax
	cltq
	.loc 1 30 12
	salq	$8, %rax
	movq	%rax, %rdx
	movq	-560(%rbp), %rax
	addq	%rdx, %rax
	.loc 1 30 43
	movb	$0, 63(%rax)
	.loc 1 32 15
	leaq	.LC2(%rip), %rax
	movq	%rax, %rsi
	movl	$0, %edi
	call	strtok@PLT
	movq	%rax, -536(%rbp)
	.loc 1 33 12
	cmpq	$0, -536(%rbp)
	je	.L9
	.loc 1 34 25
	movq	-576(%rbp), %rax
	movl	(%rax), %eax
	cltq
	.loc 1 34 24
	salq	$8, %rax
	movq	%rax, %rdx
	movq	-560(%rbp), %rax
	addq	%rdx, %rax
	.loc 1 34 28
	leaq	64(%rax), %rcx
	.loc 1 34 13
	movq	-536(%rbp), %rax
	movl	$63, %edx
	movq	%rax, %rsi
	movq	%rcx, %rdi
	call	strncpy@PLT
.L9:
	.loc 1 35 13
	movq	-576(%rbp), %rax
	movl	(%rax), %eax
	cltq
	.loc 1 35 12
	salq	$8, %rax
	movq	%rax, %rdx
	movq	-560(%rbp), %rax
	addq	%rdx, %rax
	.loc 1 35 41
	movb	$0, 127(%rax)
	.loc 1 37 15
	leaq	.LC2(%rip), %rax
	movq	%rax, %rsi
	movl	$0, %edi
	call	strtok@PLT
	movq	%rax, -536(%rbp)
	.loc 1 38 12
	cmpq	$0, -536(%rbp)
	je	.L10
	.loc 1 39 25
	movq	-576(%rbp), %rax
	movl	(%rax), %eax
	cltq
	.loc 1 39 24
	salq	$8, %rax
	movq	%rax, %rdx
	movq	-560(%rbp), %rax
	addq	%rdx, %rax
	.loc 1 39 28
	leaq	128(%rax), %rcx
	.loc 1 39 13
	movq	-536(%rbp), %rax
	movl	$127, %edx
	movq	%rax, %rsi
	movq	%rcx, %rdi
	call	strncpy@PLT
.L10:
	.loc 1 40 13
	movq	-576(%rbp), %rax
	movl	(%rax), %eax
	cltq
	.loc 1 40 12
	salq	$8, %rax
	movq	%rax, %rdx
	movq	-560(%rbp), %rax
	addq	%rdx, %rax
	.loc 1 40 41
	movb	$0, 255(%rax)
	.loc 1 42 10
	movq	-576(%rbp), %rax
	movl	(%rax), %eax
	.loc 1 42 13
	leal	1(%rax), %edx
	movq	-576(%rbp), %rax
	movl	%edx, (%rax)
	jmp	.L4
.L14:
	.loc 1 23 33
	nop
	jmp	.L4
.L15:
	.loc 1 28 19
	nop
.L4:
.LBE2:
	.loc 1 19 12
	movq	-552(%rbp), %rdx
	leaq	-528(%rbp), %rax
	movl	$512, %esi
	movq	%rax, %rdi
	call	fgets@PLT
	.loc 1 19 12 is_stmt 0 discriminator 1
	testq	%rax, %rax
	jne	.L11
	.loc 1 45 5 is_stmt 1
	movq	-552(%rbp), %rax
	movq	%rax, %rdi
	call	fclose@PLT
	.loc 1 46 12
	movq	-560(%rbp), %rax
.L12:
	.loc 1 47 1
	movq	-8(%rbp), %rdx
	subq	%fs:40, %rdx
	je	.L13
	call	__stack_chk_fail@PLT
.L13:
	leave
	.cfi_def_cfa 7, 8
	ret
	.cfi_endproc
.LFE6:
	.size	cargar_usuarios, .-cargar_usuarios
	.globl	liberar_usuarios
	.type	liberar_usuarios, @function
liberar_usuarios:
.LFB7:
	.loc 1 49 35
	.cfi_startproc
	endbr64
	pushq	%rbp
	.cfi_def_cfa_offset 16
	.cfi_offset 6, -16
	movq	%rsp, %rbp
	.cfi_def_cfa_register 6
	subq	$16, %rsp
	movq	%rdi, -8(%rbp)
	.loc 1 50 8
	cmpq	$0, -8(%rbp)
	je	.L18
	.loc 1 50 12 discriminator 1
	movq	-8(%rbp), %rax
	movq	%rax, %rdi
	call	free@PLT
.L18:
	.loc 1 51 1
	nop
	leave
	.cfi_def_cfa 7, 8
	ret
	.cfi_endproc
.LFE7:
	.size	liberar_usuarios, .-liberar_usuarios
	.globl	verificar_usuario
	.type	verificar_usuario, @function
verificar_usuario:
.LFB8:
	.loc 1 53 107
	.cfi_startproc
	endbr64
	pushq	%rbp
	.cfi_def_cfa_offset 16
	.cfi_offset 6, -16
	movq	%rsp, %rbp
	.cfi_def_cfa_register 6
	subq	$64, %rsp
	movq	%rdi, -24(%rbp)
	movl	%esi, -28(%rbp)
	movq	%rdx, -40(%rbp)
	movq	%rcx, -48(%rbp)
	movq	%r8, -56(%rbp)
.LBB3:
	.loc 1 54 14
	movl	$0, -4(%rbp)
	.loc 1 54 5
	jmp	.L20
.L24:
	.loc 1 55 28
	movl	-4(%rbp), %eax
	cltq
	salq	$8, %rax
	movq	%rax, %rdx
	movq	-24(%rbp), %rax
	addq	%rdx, %rax
	.loc 1 55 31
	movq	%rax, %rdx
	.loc 1 55 13
	movq	-40(%rbp), %rax
	movq	%rax, %rsi
	movq	%rdx, %rdi
	call	strcmp@PLT
	.loc 1 55 12 discriminator 1
	testl	%eax, %eax
	jne	.L21
	.loc 1 56 28
	movl	-4(%rbp), %eax
	cltq
	salq	$8, %rax
	movq	%rax, %rdx
	movq	-24(%rbp), %rax
	addq	%rdx, %rax
	.loc 1 56 31
	leaq	64(%rax), %rdx
	.loc 1 56 13
	movq	-48(%rbp), %rax
	movq	%rax, %rsi
	movq	%rdx, %rdi
	call	strcmp@PLT
	.loc 1 55 55 discriminator 1
	testl	%eax, %eax
	jne	.L21
	.loc 1 58 16
	cmpq	$0, -56(%rbp)
	je	.L22
	.loc 1 59 45
	movl	-4(%rbp), %eax
	cltq
	salq	$8, %rax
	movq	%rax, %rdx
	movq	-24(%rbp), %rax
	addq	%rdx, %rax
	.loc 1 59 48
	leaq	128(%rax), %rcx
	.loc 1 59 17
	movq	-56(%rbp), %rax
	movl	$127, %edx
	movq	%rcx, %rsi
	movq	%rax, %rdi
	call	strncpy@PLT
.L22:
	.loc 1 61 20
	movl	$1, %eax
	jmp	.L23
.L21:
	.loc 1 54 29 discriminator 2
	addl	$1, -4(%rbp)
.L20:
	.loc 1 54 23 discriminator 1
	movl	-4(%rbp), %eax
	cmpl	-28(%rbp), %eax
	jl	.L24
.LBE3:
	.loc 1 64 12
	movl	$0, %eax
.L23:
	.loc 1 65 1
	leave
	.cfi_def_cfa 7, 8
	ret
	.cfi_endproc
.LFE8:
	.size	verificar_usuario, .-verificar_usuario
.Letext0:
	.file 2 "/usr/lib/gcc/x86_64-linux-gnu/13/include/stddef.h"
	.file 3 "/usr/include/x86_64-linux-gnu/bits/types.h"
	.file 4 "/usr/include/x86_64-linux-gnu/bits/types/struct_FILE.h"
	.file 5 "/usr/include/x86_64-linux-gnu/bits/types/FILE.h"
	.file 6 "../Tema1/usuarios.h"
	.file 7 "/usr/include/string.h"
	.file 8 "/usr/include/stdio.h"
	.file 9 "/usr/include/stdlib.h"
	.section	.note.GNU-stack,"",@progbits
	.section	.note.gnu.property,"a"
	.align 8
	.long	1f - 0f
	.long	4f - 1f
	.long	5
0:
	.string	"GNU"
1:
	.align 8
	.long	0xc0000002
	.long	3f - 2f
2:
	.long	0x3
3:
	.align 8
4:
